; Function Attrs: mustprogress uwtable
define hidden void @_ZN4lean12type_checker19try_unfold_proj_appERKNS_4exprE(ptr dead_on_unwind noalias writable writeonly sret(%"class.lean::optional.48") align 8 captures(none) %0, ptr noundef nonnull align 8 dereferenceable(48) %1, ptr noundef nonnull align 8 dereferenceable(8) %2) local_unnamed_addr #0 align 2 personality ptr @__gxx_personality_v0 {
  %4 = alloca %"class.lean::expr", align 8
  %5 = tail call noundef nonnull align 8 dereferenceable(8) ptr @_ZN4lean10get_app_fnERKNS_4exprE(ptr noundef nonnull align 8 dereferenceable(8) %2)
  %6 = load ptr, ptr %5, align 8, !tbaa !3
  %7 = getelementptr i8, ptr %6, i64 4
  %.val.i.i.i.i = load i32, ptr %7, align 4
  %.mask.i = and i32 %.val.i.i.i.i, -16777216
  %8 = icmp eq i32 %.mask.i, 184549376
  br i1 %8, label %9, label %39

9:                                                ; preds = %3
  call void @llvm.lifetime.start.p0(i64 8, ptr nonnull %4) #19
  call void @_ZN4lean12type_checker9whnf_coreERKNS_4exprEbb(ptr dead_on_unwind nonnull writable sret(%"class.lean::expr") align 8 %4, ptr noundef nonnull align 8 dereferenceable(48) %1, ptr noundef nonnull align 8 dereferenceable(8) %2, i1 noundef zeroext false, i1 noundef zeroext false)
  %10 = invoke noundef zeroext i1 @_ZN4lean8is_equalERKNS_4exprES2_(ptr noundef nonnull align 8 dereferenceable(8) %4, ptr noundef nonnull align 8 dereferenceable(8) %2)
          to label %11 unwind label %37

11:                                               ; preds = %9
  br i1 %10, label %23, label %12

12:                                               ; preds = %11
  store i8 1, ptr %0, align 8, !tbaa !48
  %13 = getelementptr inbounds nuw i8, ptr %0, i64 8
  %14 = load ptr, ptr %4, align 8, !tbaa !3
  store ptr %14, ptr %13, align 8, !tbaa !3
  %15 = ptrtoint ptr %14 to i64
  %16 = and i64 %15, 1
  %.not.i.i.i.i = icmp eq i64 %16, 0
  br i1 %.not.i.i.i.i, label %17, label %_ZN4lean8optionalINS_4exprEEC2IJRS1_EEEDpOT_.exit

17:                                               ; preds = %12
  %.val.i.i.i.i.i = load i32, ptr %14, align 4, !tbaa !8
  %18 = icmp sgt i32 %.val.i.i.i.i.i, 0
  br i1 %18, label %19, label %21, !prof !11

19:                                               ; preds = %17
  %20 = add nuw nsw i32 %.val.i.i.i.i.i, 1
  store i32 %20, ptr %14, align 4, !tbaa !8
  br label %_ZN4lean8optionalINS_4exprEEC2IJRS1_EEEDpOT_.exit

21:                                               ; preds = %17
  %.not.i.i.i.i.i = icmp eq i32 %.val.i.i.i.i.i, 0
  br i1 %.not.i.i.i.i.i, label %_ZN4lean8optionalINS_4exprEEC2IJRS1_EEEDpOT_.exit, label %22

22:                                               ; preds = %21
  invoke void @lean_inc_ref_cold(ptr noundef nonnull %14)
          to label %_ZN4lean8optionalINS_4exprEEC2IJRS1_EEEDpOT_.exit unwind label %37

23:                                               ; preds = %11
  store i8 0, ptr %0, align 8, !tbaa !48, !alias.scope !404
  br label %_ZN4lean8optionalINS_4exprEEC2IJRS1_EEEDpOT_.exit

_ZN4lean8optionalINS_4exprEEC2IJRS1_EEEDpOT_.exit: ; preds = %21, %19, %12, %22, %23
  %24 = load ptr, ptr %4, align 8, !tbaa !3
  %25 = ptrtoint ptr %24 to i64
  %26 = and i64 %25, 1
  %.not.i.i = icmp eq i64 %26, 0
  br i1 %.not.i.i, label %27, label %_ZN4lean10object_refD2Ev.exit

27:                                               ; preds = %_ZN4lean8optionalINS_4exprEEC2IJRS1_EEEDpOT_.exit
  %28 = load i32, ptr %24, align 4, !tbaa !8
  %29 = icmp sgt i32 %28, 1
  br i1 %29, label %30, label %32, !prof !11

30:                                               ; preds = %27
  %31 = add nsw i32 %28, -1
  store i32 %31, ptr %24, align 4, !tbaa !8
  br label %_ZN4lean10object_refD2Ev.exit

32:                                               ; preds = %27
  %.not.i.i.i.i6 = icmp eq i32 %28, 0
  br i1 %.not.i.i.i.i6, label %_ZN4lean10object_refD2Ev.exit, label %33

33:                                               ; preds = %32
  invoke void @lean_dec_ref_cold(ptr noundef nonnull %24)
          to label %_ZN4lean10object_refD2Ev.exit unwind label %34

34:                                               ; preds = %33
  %35 = landingpad { ptr, i32 }
          catch ptr null
  %36 = extractvalue { ptr, i32 } %35, 0
  call void @__clang_call_terminate(ptr %36) #21
  unreachable

_ZN4lean10object_refD2Ev.exit:                    ; preds = %_ZN4lean8optionalINS_4exprEEC2IJRS1_EEEDpOT_.exit, %30, %32, %33
  call void @llvm.lifetime.end.p0(i64 8, ptr nonnull %4) #19
  br label %40

37:                                               ; preds = %22, %9
  %38 = landingpad { ptr, i32 }
          cleanup
  call void @_ZN4lean10object_refD2Ev(ptr noundef nonnull align 8 dereferenceable(8) %4) #19
  call void @llvm.lifetime.end.p0(i64 8, ptr nonnull %4) #19
  resume { ptr, i32 } %38

39:                                               ; preds = %3
  store i8 0, ptr %0, align 8, !tbaa !48, !alias.scope !407
  br label %40

40:                                               ; preds = %39, %_ZN4lean10object_refD2Ev.exit
  ret void
}